(dp0
S',0.08817,0.06729,0.03016,0.03712,0.0232,0.06497,0.02088,0.05336,0.06265,0.07425,0.02552,0.058,0.0464,0.04408,0.06497,0.058,0.0464,0.06497,0.01624,0.02088,0.03248'
p1
(dp2
I1
(F0.0
F0.0
tp3
sI2
(F0.94407
F0.22978
tp4
sI3
(F1.47459
F0.25777
tp5
sI4
(F1.83657
F0.26571
tp6
sI5
(F2.10676
F0.26681
tp7
ssS',0.0625,0.0125,0.04375,0.04375,0.025,0.05625,0.025,0.04375,0.05,0.1,0.025,0.0375,0.0625,0.04375,0.1,0.0625,0.06875,0.0625,0.0125,0.025,0.0375'
p8
(dp9
I1
(F0.0
F0.0
tp10
sI2
(F0.94067
F0.23624
tp11
sI4
(F1.82715
F0.27332
tp12
sI5
(F2.09469
F0.27454
tp13
ss.