((lp0
(lp1
I0
aI0
aI16
aI0
aa(lp2
I2
aI4
aI2
aI8
aa(lp3
I0
aI14
aI0
aI2
aa(lp4
I0
aI14
aI2
aI0
aa(lp5
I0
aI2
aI8
aI6
aa(lp6
I2
aI2
aI0
aI12
aa(lp7
I0
aI0
aI14
aI2
aa(lp8
I0
aI0
aI0
aI16
aa(lp9
I2
aI0
aI14
aI0
aa(lp10
I0
aI0
aI16
aI0
aa(lp11
I0
aI16
aI0
aI0
aa(lp12
I0
aI4
aI4
aI8
aa(lp13
I0
aI12
aI0
aI4
aa(lp14
I16
aI0
aI0
aI0
aa(lp15
I16
aI0
aI0
aI0
aa(lp16
I0
aI0
aI0
aI16
aa(lp17
I0
aI0
aI16
aI0
aa(lp18
I0
aI0
aI16
aI0
aa(lp19
I16
aI0
aI0
aI0
aa(lp20
I16
aI0
aI0
aI0
aa(lp21
I2
aI0
aI12
aI2
aa(lp22
I8
aI4
aI4
aI0
aa(lp23
I0
aI0
aI16
aI0
aa(lp24
I0
aI16
aI0
aI0
aa(lp25
I10
aI0
aI4
aI2
aa(lp26
I0
aI0
aI0
aI16
aa(lp27
I0
aI12
aI0
aI4
aa(lp28
I2
aI0
aI4
aI10
aa(lp29
I0
aI0
aI16
aI0
aa(lp30
I14
aI2
aI0
aI0
aa(lp31
I0
aI12
aI0
aI4
aa(lp32
I0
aI0
aI0
aI16
aa(lp33
I8
aI4
aI0
aI4
aa(lp34
I0
aI16
aI0
aI0
aa(lp35
I0
aI0
aI12
aI4
aa(lp36
I4
aI0
aI12
aI0
aa(lp37
I16
aI0
aI0
aI0
aa(lp38
I0
aI0
aI2
aI14
aa(lp39
I0
aI16
aI0
aI0
aa(lp40
I10
aI4
aI0
aI2
aa(lp41
I4
aI0
aI12
aI0
aa(lp42
I16
aI0
aI0
aI0
aa(lp43
I6
aI0
aI10
aI0
aa(lp44
I0
aI0
aI16
aI0
aa(lp45
I2
aI0
aI14
aI0
aa(lp46
I0
aI0
aI0
aI16
aa(lp47
I0
aI0
aI0
aI16
aa(lp48
I0
aI0
aI16
aI0
aa(lp49
I0
aI14
aI0
aI2
aa(lp50
I10
aI0
aI6
aI0
aa(lp51
I0
aI0
aI16
aI0
aa(lp52
I0
aI0
aI16
aI0
aa(lp53
I0
aI0
aI0
aI16
aa(lp54
I0
aI0
aI0
aI16
aa(lp55
I0
aI16
aI0
aI0
aa(lp56
I0
aI0
aI16
aI0
aa(lp57
I16
aI0
aI0
aI0
aa(lp58
I10
aI2
aI4
aI0
aa(lp59
I0
aI2
aI0
aI14
aa(lp60
I0
aI16
aI0
aI0
aa(lp61
I0
aI16
aI0
aI0
aa(lp62
I0
aI6
aI0
aI10
aa(lp63
I2
aI0
aI14
aI0
aa(lp64
I0
aI5
aI0
aI11
aa(lp65
I2
aI14
aI0
aI0
aa(lp66
I12
aI0
aI2
aI2
aa(lp67
I0
aI8
aI8
aI0
aa(lp68
I0
aI2
aI14
aI0
aa(lp69
I2
aI0
aI14
aI0
aa(lp70
I8
aI0
aI4
aI4
aa(lp71
I0
aI2
aI0
aI14
aa(lp72
I4
aI0
aI12
aI0
aaS'ACGT'
p73
tp74
.