(dp0
S',0.08817,0.06729,0.03016,0.03712,0.0232,0.06497,0.02088,0.05336,0.06265,0.07425,0.02552,0.058,0.0464,0.04408,0.06497,0.058,0.0464,0.06497,0.01624,0.02088,0.03248'
p1
(dp2
I1
(F0.0
F0.0
tp3
sI2
(F0.94407
F0.22978
tp4
sI3
(F1.47459
F0.25777
tp5
sI4
(F1.83657
F0.26571
tp6
sI5
(F2.10676
F0.26681
tp7
ssS',0.06364,0.01212,0.03636,0.03636,0.02424,0.07273,0.02576,0.05,0.05,0.09697,0.02576,0.03636,0.06061,0.04848,0.09848,0.06212,0.06818,0.06364,0.01212,0.02424,0.03182'
p8
(dp9
I1
(F0.0
F0.0
tp10
ss.