(dp0
S',0.06364,0.01212,0.03636,0.03636,0.02424,0.07273,0.02576,0.05,0.05,0.09697,0.02576,0.03636,0.06061,0.04848,0.09848,0.06212,0.06818,0.06364,0.01212,0.02424,0.03182'
p1
(dp2
I1
(F0.0
F0.0
tp3
ss.