(dp0
S',0.06122,0.02041,0.03571,0.05612,0.02041,0.06122,0.02041,0.05102,0.05102,0.08673,0.03061,0.03061,0.06122,0.03571,0.1071,0.05102,0.06633,0.08163,0.02041,0.02041,0.03061'
p1
(dp2
I1
(F0.0
F0.0
tp3
sI2
(F0.94025
F0.23701
tp4
sI4
(F1.826
F0.27428
tp5
sI5
(F2.09323
F0.27554
tp6
ss.