(dp0
S',0.06333,0.02,0.03667,0.05333,0.02,0.06,0.02,0.05,0.05333,0.08667,0.03,0.03,0.06,0.03667,0.11,0.05333,0.06667,0.08,0.02,0.02,0.03'
p1
(dp2
I1
(F0.0
F0.0
tp3
sI3
(F1.46654
F0.26675
tp4
sI4
(F1.82497
F0.27509
tp5
ssS',0.08817,0.06729,0.03016,0.03712,0.0232,0.06497,0.02088,0.05336,0.06265,0.07425,0.02552,0.058,0.0464,0.04408,0.06497,0.058,0.0464,0.06497,0.01624,0.02088,0.03248'
p6
(dp7
I1
(F0.0
F0.0
tp8
sI2
(F0.94407
F0.22978
tp9
sI3
(F1.47459
F0.25777
tp10
sI4
(F1.83657
F0.26571
tp11
sI5
(F2.10676
F0.26681
tp12
ss.