((lp0
(lp1
I0
aI0
aI12
aI0
aa(lp2
I0
aI0
aI12
aI0
aa(lp3
I0
aI0
aI12
aI0
aa(lp4
I0
aI7
aI5
aI0
aa(lp5
I5
aI0
aI7
aI0
aa(lp6
I0
aI0
aI0
aI12
aa(lp7
I6
aI0
aI6
aI0
aa(lp8
I0
aI0
aI0
aI12
aa(lp9
I12
aI0
aI0
aI0
aa(lp10
I0
aI0
aI12
aI0
aa(lp11
I0
aI12
aI0
aI0
aa(lp12
I0
aI0
aI0
aI12
aa(lp13
I0
aI12
aI0
aI0
aa(lp14
I12
aI0
aI0
aI0
aa(lp15
I0
aI0
aI12
aI0
aa(lp16
I5
aI0
aI0
aI7
aa(lp17
I0
aI0
aI12
aI0
aa(lp18
I0
aI0
aI12
aI0
aa(lp19
I0
aI0
aI0
aI12
aa(lp20
I12
aI0
aI0
aI0
aa(lp21
I0
aI0
aI12
aI0
aa(lp22
I12
aI0
aI0
aI0
aa(lp23
I0
aI0
aI12
aI0
aa(lp24
I0
aI12
aI0
aI0
aa(lp25
I0
aI0
aI12
aI0
aa(lp26
I5
aI2
aI0
aI5
aa(lp27
I0
aI12
aI0
aI0
aa(lp28
I0
aI10
aI0
aI2
aa(lp29
I0
aI0
aI12
aI0
aa(lp30
I0
aI5
aI0
aI7
aa(lp31
I0
aI0
aI0
aI12
aa(lp32
I0
aI0
aI0
aI12
aa(lp33
I5
aI5
aI0
aI2
aa(lp34
I0
aI0
aI12
aI0
aa(lp35
I0
aI12
aI0
aI0
aa(lp36
I12
aI0
aI0
aI0
aa(lp37
I0
aI0
aI0
aI12
aa(lp38
I7
aI0
aI5
aI0
aa(lp39
I0
aI12
aI0
aI0
aa(lp40
I2
aI0
aI10
aI0
aa(lp41
I0
aI0
aI12
aI0
aa(lp42
I5
aI0
aI2
aI5
aa(lp43
I12
aI0
aI0
aI0
aa(lp44
I0
aI0
aI12
aI0
aa(lp45
I0
aI0
aI12
aI0
aa(lp46
I1
aI6
aI0
aI5
aa(lp47
I5
aI7
aI0
aI0
aa(lp48
I0
aI0
aI0
aI12
aa(lp49
I7
aI0
aI0
aI5
aa(lp50
I0
aI0
aI12
aI0
aa(lp51
I0
aI0
aI12
aI0
aa(lp52
I0
aI0
aI12
aI0
aa(lp53
I5
aI0
aI0
aI7
aa(lp54
I0
aI0
aI0
aI12
aa(lp55
I0
aI12
aI0
aI0
aa(lp56
I2
aI0
aI10
aI0
aa(lp57
I12
aI0
aI0
aI0
aa(lp58
I0
aI1
aI0
aI11
aa(lp59
I5
aI7
aI0
aI0
aa(lp60
I0
aI12
aI0
aI0
aa(lp61
I0
aI12
aI0
aI0
aa(lp62
I0
aI12
aI0
aI0
aa(lp63
I5
aI0
aI0
aI7
aa(lp64
I12
aI0
aI0
aI0
aa(lp65
I0
aI6
aI0
aI6
aa(lp66
I1
aI0
aI0
aI11
aa(lp67
I0
aI7
aI0
aI5
aa(lp68
I0
aI5
aI7
aI0
aa(lp69
I0
aI0
aI0
aI12
aa(lp70
I0
aI12
aI0
aI0
aa(lp71
I0
aI12
aI0
aI0
aa(lp72
I12
aI0
aI0
aI0
aaS'ACGT'
p73
tp74
.