(dp0
S',0.06122,0.02041,0.03571,0.05612,0.02041,0.06122,0.02041,0.05102,0.05102,0.08673,0.03061,0.03061,0.06122,0.03571,0.1071,0.05102,0.06633,0.08163,0.02041,0.02041,0.03061'
p1
(dp2
I1
(F0.0
F0.0
tp3
sI2
(F0.94025
F0.23701
tp4
sI4
(F1.826
F0.27428
tp5
sI5
(F2.09323
F0.27554
tp6
ssS',0.08817,0.06729,0.03016,0.03712,0.0232,0.06497,0.02088,0.05336,0.06265,0.07425,0.02552,0.058,0.0464,0.04408,0.06497,0.058,0.0464,0.06497,0.01624,0.02088,0.03248'
p7
(dp8
I1
(F0.0
F0.0
tp9
sI2
(F0.94407
F0.22978
tp10
sI3
(F1.47459
F0.25777
tp11
sI4
(F1.83657
F0.26571
tp12
sI5
(F2.10676
F0.26681
tp13
ssS',0.0625,0.0125,0.04375,0.04375,0.025,0.05625,0.025,0.04375,0.05,0.1,0.025,0.0375,0.0625,0.04375,0.1,0.0625,0.06875,0.0625,0.0125,0.025,0.0375'
p14
(dp15
I1
(F0.0
F0.0
tp16
sI2
(F0.94067
F0.23624
tp17
sI4
(F1.82715
F0.27332
tp18
sI5
(F2.09469
F0.27454
tp19
ssS',0.06333,0.02,0.03667,0.05333,0.02,0.06,0.02,0.05,0.05333,0.08667,0.03,0.03,0.06,0.03667,0.11,0.05333,0.06667,0.08,0.02,0.02,0.03'
p20
(dp21
I1
(F0.0
F0.0
tp22
sI3
(F1.46654
F0.26675
tp23
sI4
(F1.82497
F0.27509
tp24
ssS',0.05836,0.02122,0.0252,0.0504,0.03448,0.06499,0.02387,0.0557,0.05172,0.1021,0.03448,0.04111,0.05172,0.0504,0.1034,0.07692,0.05703,0.05968,0.01724,0.01724,0.002653'
p25
(dp26
I1
(F0.0
F0.0
tp27
sI2
(F0.93861
F0.24002
tp28
sI3
(F1.46407
F0.26907
tp29
sI5
(F2.08718
F0.27819
tp30
ssS',0.06211,0.01242,0.04037,0.04348,0.01553,0.05901,0.02484,0.04037,0.05901,0.1025,0.02484,0.03727,0.06522,0.04037,0.09938,0.06522,0.07453,0.06832,0.01242,0.02484,0.02795'
p31
(dp32
I1
(F0.0
F0.0
tp33
sI4
(F1.82155
F0.27712
tp34
sI5
(F2.08744
F0.27817
tp35
ssS',0.05442,0.01361,0.03401,0.03401,0.02721,0.06122,0.02721,0.04762,0.04762,0.09524,0.02721,0.04082,0.06122,0.05442,0.102,0.06803,0.06803,0.06122,0.01361,0.02721,0.03401'
p36
(dp37
I2
(F0.94105
F0.23551
tp38
sI3
(F1.4688
F0.2643
tp39
sI4
(F1.82824
F0.27257
tp40
sI5
(F2.0961
F0.27382
tp41
ssS',0.06364,0.01212,0.03636,0.03636,0.02424,0.07273,0.02576,0.05,0.05,0.09697,0.02576,0.03636,0.06061,0.04848,0.09848,0.06212,0.06818,0.06364,0.01212,0.02424,0.03182'
p42
(dp43
I1
(F0.0
F0.0
tp44
ssS',0.06811,0.03406,0.02477,0.04954,0.03406,0.0805,0.02167,0.04334,0.05882,0.0774,0.02786,0.03096,0.05882,0.04334,0.1115,0.06192,0.05263,0.06811,0.01548,0.01548,0.02167'
p45
(dp46
I1
(F0.0
F0.0
tp47
sI4
(F1.82523
F0.27484
tp48
sI5
(F2.09223
F0.27609
tp49
ssS',0.06426,0.01205,0.03614,0.03614,0.0241,0.07229,0.0241,0.04016,0.06024,0.09237,0.0241,0.03614,0.06024,0.04819,0.1044,0.06024,0.08032,0.06024,0.01205,0.0241,0.02811'
p50
(dp51
I3
(F1.46472
F0.26844
tp52
ss.