(dp0
S',0.08817,0.06729,0.03016,0.03712,0.0232,0.06497,0.02088,0.05336,0.06265,0.07425,0.02552,0.058,0.0464,0.04408,0.06497,0.058,0.0464,0.06497,0.01624,0.02088,0.03248'
p1
(dp2
I1
(F0.0
F0.0
tp3
sI2
(F0.94407
F0.22978
tp4
sI3
(F1.47459
F0.25777
tp5
sI4
(F1.83657
F0.26571
tp6
sI5
(F2.10676
F0.26681
tp7
ssS',0.06811,0.03406,0.02477,0.04954,0.03406,0.0805,0.02167,0.04334,0.05882,0.0774,0.02786,0.03096,0.05882,0.04334,0.1115,0.06192,0.05263,0.06811,0.01548,0.01548,0.02167'
p8
(dp9
I1
(F0.0
F0.0
tp10
sI4
(F1.82523
F0.27484
tp11
sI5
(F2.09223
F0.27609
tp12
ss.