((lp0
(lp1
I0
aI0
aI28
aI0
aa(lp2
I5
aI5
aI17
aI1
aa(lp3
I0
aI21
aI7
aI0
aa(lp4
I0
aI22
aI0
aI6
aa(lp5
I3
aI19
aI6
aI0
aa(lp6
I12
aI9
aI1
aI6
aa(lp7
I0
aI0
aI28
aI0
aa(lp8
I0
aI0
aI0
aI28
aa(lp9
I0
aI0
aI28
aI0
aa(lp10
I0
aI0
aI28
aI0
aa(lp11
I0
aI28
aI0
aI0
aa(lp12
I0
aI15
aI13
aI0
aa(lp13
I0
aI13
aI0
aI15
aa(lp14
I27
aI0
aI1
aI0
aa(lp15
I28
aI0
aI0
aI0
aa(lp16
I0
aI0
aI0
aI28
aa(lp17
I0
aI0
aI0
aI0
aa(lp18
I0
aI0
aI28
aI0
aa(lp19
I0
aI0
aI28
aI0
aa(lp20
I28
aI0
aI0
aI0
aa(lp21
I0
aI1
aI0
aI27
aa(lp22
I28
aI0
aI0
aI0
aa(lp23
I22
aI0
aI6
aI0
aa(lp24
I0
aI13
aI15
aI0
aa(lp25
I0
aI0
aI28
aI0
aa(lp26
I0
aI27
aI0
aI1
aa(lp27
I11
aI0
aI17
aI0
aa(lp28
I0
aI4
aI0
aI24
aa(lp29
I0
aI17
aI0
aI11
aa(lp30
I1
aI0
aI11
aI16
aa(lp31
I0
aI0
aI28
aI0
aa(lp32
I22
aI6
aI0
aI0
aa(lp33
I0
aI25
aI0
aI3
aa(lp34
I0
aI0
aI0
aI28
aa(lp35
I7
aI9
aI0
aI12
aa(lp36
I0
aI28
aI0
aI0
aa(lp37
I0
aI0
aI17
aI11
aa(lp38
I11
aI0
aI17
aI0
aa(lp39
I28
aI0
aI0
aI0
aa(lp40
I0
aI0
aI6
aI22
aa(lp41
I0
aI23
aI0
aI5
aa(lp42
I16
aI11
aI0
aI1
aa(lp43
I12
aI0
aI16
aI0
aa(lp44
I21
aI0
aI7
aI0
aa(lp45
I22
aI0
aI6
aI0
aa(lp46
I0
aI0
aI28
aI0
aa(lp47
I22
aI0
aI6
aI0
aa(lp48
I0
aI0
aI0
aI28
aa(lp49
I0
aI0
aI0
aI28
aa(lp50
I0
aI9
aI19
aI0
aa(lp51
I7
aI8
aI0
aI13
aa(lp52
I9
aI0
aI19
aI0
aa(lp53
I0
aI0
aI28
aI0
aa(lp54
I0
aI0
aI28
aI0
aa(lp55
I0
aI0
aI0
aI28
aa(lp56
I0
aI0
aI0
aI28
aa(lp57
I0
aI27
aI0
aI1
aa(lp58
I0
aI0
aI28
aI0
aa(lp59
I28
aI0
aI0
aI0
aa(lp60
I4
aI7
aI17
aI0
aa(lp61
I0
aI0
aI0
aI28
aa(lp62
I0
aI26
aI0
aI2
aa(lp63
I0
aI28
aI0
aI0
aa(lp64
I0
aI19
aI0
aI9
aa(lp65
I9
aI0
aI11
aI8
aa(lp66
I0
aI11
aI9
aI8
aa(lp67
I0
aI28
aI0
aI0
aa(lp68
I6
aI1
aI9
aI12
aa(lp69
I0
aI2
aI19
aI7
aa(lp70
I6
aI0
aI22
aI0
aa(lp71
I0
aI7
aI21
aI0
aa(lp72
I1
aI0
aI5
aI22
aa(lp73
I0
aI19
aI0
aI9
aa(lp74
I5
aI0
aI23
aI0
aaS'ACGT'
p75
tp76
.