((lp0
(lp1
I1
aI0
aI43
aI0
aa(lp2
I0
aI0
aI44
aI0
aa(lp3
I0
aI0
aI44
aI0
aa(lp4
I0
aI29
aI15
aI0
aa(lp5
I15
aI0
aI29
aI0
aa(lp6
I0
aI0
aI0
aI44
aa(lp7
I0
aI0
aI44
aI0
aa(lp8
I0
aI0
aI0
aI44
aa(lp9
I43
aI0
aI1
aI0
aa(lp10
I0
aI0
aI44
aI0
aa(lp11
I0
aI44
aI0
aI0
aa(lp12
I0
aI0
aI0
aI44
aa(lp13
I0
aI44
aI0
aI0
aa(lp14
I44
aI0
aI0
aI0
aa(lp15
I0
aI0
aI44
aI0
aa(lp16
I15
aI0
aI0
aI29
aa(lp17
I0
aI0
aI0
aI15
aa(lp18
I0
aI0
aI44
aI0
aa(lp19
I0
aI0
aI44
aI0
aa(lp20
I0
aI0
aI0
aI44
aa(lp21
I0
aI0
aI0
aI0
aa(lp22
I44
aI0
aI0
aI0
aa(lp23
I0
aI0
aI44
aI0
aa(lp24
I44
aI0
aI0
aI0
aa(lp25
I0
aI0
aI44
aI0
aa(lp26
I0
aI42
aI0
aI2
aa(lp27
I0
aI0
aI44
aI0
aa(lp28
I0
aI26
aI0
aI18
aa(lp29
I0
aI44
aI0
aI0
aa(lp30
I0
aI34
aI0
aI10
aa(lp31
I0
aI0
aI44
aI0
aa(lp32
I0
aI15
aI0
aI29
aa(lp33
I0
aI0
aI0
aI44
aa(lp34
I0
aI0
aI0
aI44
aa(lp35
I15
aI18
aI0
aI11
aa(lp36
I0
aI0
aI44
aI0
aa(lp37
I0
aI44
aI0
aI0
aa(lp38
I44
aI0
aI0
aI0
aa(lp39
I0
aI1
aI0
aI43
aa(lp40
I29
aI0
aI15
aI0
aa(lp41
I0
aI44
aI0
aI0
aa(lp42
I10
aI0
aI34
aI0
aa(lp43
I0
aI0
aI44
aI0
aa(lp44
I18
aI0
aI26
aI0
aa(lp45
I44
aI0
aI0
aI0
aa(lp46
I0
aI0
aI44
aI0
aa(lp47
I0
aI0
aI44
aI0
aa(lp48
I0
aI30
aI0
aI14
aa(lp49
I15
aI29
aI0
aI0
aa(lp50
I0
aI1
aI0
aI43
aa(lp51
I29
aI0
aI0
aI15
aa(lp52
I0
aI0
aI44
aI0
aa(lp53
I0
aI0
aI44
aI0
aa(lp54
I0
aI0
aI44
aI0
aa(lp55
I15
aI0
aI0
aI29
aa(lp56
I1
aI0
aI0
aI43
aa(lp57
I0
aI44
aI0
aI0
aa(lp58
I9
aI0
aI35
aI0
aa(lp59
I44
aI0
aI0
aI0
aa(lp60
I9
aI0
aI0
aI35
aa(lp61
I15
aI29
aI0
aI0
aa(lp62
I0
aI44
aI0
aI0
aa(lp63
I0
aI44
aI0
aI0
aa(lp64
I0
aI44
aI0
aI0
aa(lp65
I15
aI0
aI0
aI29
aa(lp66
I44
aI0
aI0
aI0
aa(lp67
I0
aI44
aI0
aI0
aa(lp68
I0
aI0
aI0
aI44
aa(lp69
I0
aI28
aI0
aI16
aa(lp70
I0
aI15
aI29
aI0
aa(lp71
I0
aI0
aI0
aI44
aa(lp72
I0
aI44
aI0
aI0
aa(lp73
I0
aI44
aI0
aI0
aa(lp74
I44
aI0
aI0
aI0
aaS'ACGT'
p75
tp76
.