(dp0
S',0.05836,0.02122,0.0252,0.0504,0.03448,0.06499,0.02387,0.0557,0.05172,0.1021,0.03448,0.04111,0.05172,0.0504,0.1034,0.07692,0.05703,0.05968,0.01724,0.01724,0.002653'
p1
(dp2
I1
(F0.0
F0.0
tp3
sI2
(F0.93861
F0.24002
tp4
sI3
(F1.46407
F0.26907
tp5
sI4
(F1.82135
F0.27719
tp6
sI5
(F2.08718
F0.27819
tp7
ssS',0.08817,0.06729,0.03016,0.03712,0.0232,0.06497,0.02088,0.05336,0.06265,0.07425,0.02552,0.058,0.0464,0.04408,0.06497,0.058,0.0464,0.06497,0.01624,0.02088,0.03248'
p8
(dp9
I1
(F0.0
F0.0
tp10
sI2
(F0.94407
F0.22978
tp11
sI3
(F1.47459
F0.25777
tp12
sI4
(F1.83657
F0.26571
tp13
sI5
(F2.10676
F0.26681
tp14
ss.