((lp0
(lp1
I0
aI0
aI32
aI0
aa(lp2
I4
aI8
aI4
aI16
aa(lp3
I0
aI28
aI0
aI4
aa(lp4
I0
aI28
aI4
aI0
aa(lp5
I0
aI4
aI16
aI12
aa(lp6
I4
aI4
aI0
aI24
aa(lp7
I0
aI0
aI28
aI4
aa(lp8
I0
aI0
aI0
aI32
aa(lp9
I4
aI0
aI28
aI0
aa(lp10
I0
aI0
aI32
aI0
aa(lp11
I0
aI32
aI0
aI0
aa(lp12
I0
aI8
aI8
aI16
aa(lp13
I0
aI24
aI0
aI8
aa(lp14
I32
aI0
aI0
aI0
aa(lp15
I32
aI0
aI0
aI0
aa(lp16
I0
aI0
aI0
aI32
aa(lp17
I0
aI0
aI32
aI0
aa(lp18
I0
aI0
aI32
aI0
aa(lp19
I32
aI0
aI0
aI0
aa(lp20
I0
aI0
aI0
aI8
aa(lp21
I31
aI1
aI0
aI0
aa(lp22
I4
aI0
aI24
aI4
aa(lp23
I16
aI8
aI8
aI0
aa(lp24
I0
aI0
aI32
aI0
aa(lp25
I0
aI32
aI0
aI0
aa(lp26
I20
aI0
aI8
aI4
aa(lp27
I0
aI0
aI0
aI32
aa(lp28
I0
aI24
aI0
aI8
aa(lp29
I4
aI0
aI8
aI20
aa(lp30
I0
aI0
aI32
aI0
aa(lp31
I28
aI4
aI0
aI0
aa(lp32
I0
aI24
aI0
aI8
aa(lp33
I0
aI0
aI0
aI32
aa(lp34
I16
aI8
aI0
aI8
aa(lp35
I0
aI32
aI0
aI0
aa(lp36
I0
aI0
aI24
aI8
aa(lp37
I8
aI0
aI24
aI0
aa(lp38
I32
aI0
aI0
aI0
aa(lp39
I0
aI0
aI4
aI28
aa(lp40
I0
aI32
aI0
aI0
aa(lp41
I20
aI8
aI0
aI4
aa(lp42
I8
aI0
aI24
aI0
aa(lp43
I32
aI0
aI0
aI0
aa(lp44
I12
aI0
aI20
aI0
aa(lp45
I0
aI0
aI32
aI0
aa(lp46
I4
aI0
aI28
aI0
aa(lp47
I0
aI0
aI0
aI32
aa(lp48
I0
aI0
aI0
aI32
aa(lp49
I0
aI0
aI32
aI0
aa(lp50
I0
aI28
aI0
aI4
aa(lp51
I20
aI0
aI12
aI0
aa(lp52
I0
aI0
aI32
aI0
aa(lp53
I0
aI0
aI32
aI0
aa(lp54
I0
aI0
aI0
aI32
aa(lp55
I0
aI0
aI0
aI32
aa(lp56
I0
aI32
aI0
aI0
aa(lp57
I0
aI0
aI32
aI0
aa(lp58
I32
aI0
aI0
aI0
aa(lp59
I20
aI4
aI8
aI0
aa(lp60
I0
aI4
aI0
aI28
aa(lp61
I0
aI32
aI0
aI0
aa(lp62
I0
aI32
aI0
aI0
aa(lp63
I0
aI12
aI0
aI20
aa(lp64
I4
aI0
aI28
aI0
aa(lp65
I0
aI12
aI0
aI20
aa(lp66
I4
aI28
aI0
aI0
aa(lp67
I24
aI0
aI4
aI4
aa(lp68
I0
aI16
aI16
aI0
aa(lp69
I0
aI4
aI28
aI0
aa(lp70
I4
aI0
aI28
aI0
aa(lp71
I16
aI0
aI8
aI8
aa(lp72
I0
aI4
aI0
aI28
aa(lp73
I8
aI0
aI24
aI0
aaS'ACGT'
p74
tp75
.