((lp0
(lp1
I0
aI0
aI42
aI0
aa(lp2
I0
aI42
aI0
aI0
aa(lp3
I0
aI0
aI0
aI42
aa(lp4
I0
aI42
aI0
aI0
aa(lp5
I0
aI12
aI0
aI30
aa(lp6
I0
aI30
aI0
aI12
aa(lp7
I30
aI0
aI12
aI0
aa(lp8
I0
aI0
aI0
aI42
aa(lp9
I30
aI0
aI12
aI0
aa(lp10
I0
aI0
aI42
aI0
aa(lp11
I0
aI30
aI0
aI12
aa(lp12
I0
aI12
aI0
aI30
aa(lp13
I0
aI30
aI0
aI12
aa(lp14
I42
aI0
aI0
aI0
aa(lp15
I0
aI0
aI42
aI0
aa(lp16
I0
aI0
aI0
aI42
aa(lp17
I0
aI0
aI42
aI0
aa(lp18
I0
aI0
aI42
aI0
aa(lp19
I0
aI0
aI0
aI42
aa(lp20
I0
aI0
aI0
aI42
aa(lp21
I42
aI0
aI0
aI0
aa(lp22
I0
aI0
aI42
aI0
aa(lp23
I30
aI0
aI12
aI0
aa(lp24
I12
aI0
aI30
aI0
aa(lp25
I0
aI42
aI0
aI0
aa(lp26
I0
aI0
aI42
aI0
aa(lp27
I0
aI0
aI0
aI42
aa(lp28
I0
aI0
aI30
aI12
aa(lp29
I0
aI0
aI42
aI0
aa(lp30
I0
aI0
aI42
aI0
aa(lp31
I0
aI0
aI0
aI42
aa(lp32
I0
aI42
aI0
aI0
aa(lp33
I0
aI0
aI0
aI42
aa(lp34
I30
aI0
aI0
aI12
aa(lp35
I42
aI0
aI0
aI0
aa(lp36
I0
aI0
aI0
aI42
aa(lp37
I30
aI0
aI12
aI0
aa(lp38
I42
aI0
aI0
aI0
aa(lp39
I0
aI0
aI42
aI0
aa(lp40
I0
aI42
aI0
aI0
aa(lp41
I0
aI42
aI0
aI0
aa(lp42
I0
aI30
aI12
aI0
aa(lp43
I42
aI0
aI0
aI0
aa(lp44
I42
aI0
aI0
aI0
aa(lp45
I0
aI0
aI30
aI12
aa(lp46
I12
aI0
aI30
aI0
aa(lp47
I0
aI0
aI0
aI42
aa(lp48
I0
aI42
aI0
aI0
aa(lp49
I30
aI0
aI12
aI0
aa(lp50
I0
aI42
aI0
aI0
aa(lp51
I30
aI0
aI12
aI0
aa(lp52
I0
aI0
aI42
aI0
aa(lp53
I0
aI0
aI42
aI0
aa(lp54
I0
aI0
aI0
aI42
aa(lp55
I0
aI0
aI0
aI42
aa(lp56
I0
aI42
aI0
aI0
aa(lp57
I0
aI0
aI42
aI0
aa(lp58
I42
aI0
aI0
aI0
aa(lp59
I0
aI30
aI12
aI0
aa(lp60
I0
aI41
aI0
aI0
aa(lp61
I0
aI42
aI0
aI0
aa(lp62
I0
aI42
aI0
aI0
aa(lp63
I0
aI12
aI0
aI30
aa(lp64
I0
aI0
aI42
aI0
aa(lp65
I0
aI12
aI0
aI30
aa(lp66
I0
aI12
aI0
aI30
aa(lp67
I12
aI0
aI30
aI0
aa(lp68
I0
aI0
aI41
aI0
aa(lp69
I0
aI0
aI42
aI0
aa(lp70
I42
aI0
aI0
aI0
aa(lp71
I0
aI0
aI42
aI0
aa(lp72
I0
aI42
aI0
aI0
aa(lp73
I42
aI0
aI0
aI0
aaS'ACGT'
p74
tp75
.