(dp0
S',0.06116,0.01223,0.03976,0.04281,0.01529,0.0581,0.02446,0.03976,0.06116,0.1131,0.02446,0.0367,0.06422,0.03976,0.09786,0.06422,0.07339,0.06728,0.01223,0.02446,0.02752'
p1
(dp2
I1
(F0.0
F0.0
tp3
sI4
(F1.81848
F0.27962
tp4
sI5
(F2.08354
F0.28076
tp5
ss.