(dp0
S',0.06325,0.01205,0.03614,0.03614,0.0241,0.07229,0.0256,0.0497,0.0497,0.09639,0.0256,0.03614,0.06024,0.04819,0.09789,0.06777,0.06777,0.06325,0.01205,0.0241,0.03163'
p1
(dp2
I4
(F1.82551
F0.27422
tp3
ss.