(dp0
S',0.0625,0.0125,0.04375,0.04375,0.025,0.05625,0.025,0.04375,0.05,0.1,0.025,0.0375,0.0625,0.04375,0.1,0.0625,0.06875,0.0625,0.0125,0.025,0.0375'
p1
(dp2
I1
(F0.0
F0.0
tp3
sI2
(F0.94067
F0.23624
tp4
sI4
(F1.82715
F0.27332
tp5
sI5
(F2.09469
F0.27454
tp6
ss.