(dp0
S',0.08817,0.06729,0.03016,0.03712,0.0232,0.06497,0.02088,0.05336,0.06265,0.07425,0.02552,0.058,0.0464,0.04408,0.06497,0.058,0.0464,0.06497,0.01624,0.02088,0.03248'
p1
(dp2
I1
(F0.0
F0.0
tp3
sI2
(F0.94407
F0.22978
tp4
sI3
(F1.47459
F0.25777
tp5
sI4
(F1.83657
F0.26571
tp6
sI5
(F2.10676
F0.26681
tp7
ssS',0.06211,0.01242,0.04037,0.04348,0.01553,0.05901,0.02484,0.04037,0.05901,0.1025,0.02484,0.03727,0.06522,0.04037,0.09938,0.06522,0.07453,0.06832,0.01242,0.02484,0.02795'
p8
(dp9
I1
(F0.0
F0.0
tp10
sI2
(F0.93868
F0.2399
tp11
sI4
(F1.82155
F0.27712
tp12
sI5
(F2.08744
F0.27817
tp13
ss.