((lp0
(lp1
I0
aI0
aI19
aI0
aa(lp2
I0
aI19
aI0
aI0
aa(lp3
I4
aI0
aI15
aI0
aa(lp4
I4
aI15
aI0
aI0
aa(lp5
I11
aI4
aI0
aI4
aa(lp6
I0
aI0
aI15
aI4
aa(lp7
I0
aI4
aI4
aI11
aa(lp8
I0
aI0
aI0
aI19
aa(lp9
I0
aI0
aI19
aI0
aa(lp10
I0
aI0
aI19
aI0
aa(lp11
I0
aI0
aI0
aI19
aa(lp12
I0
aI19
aI0
aI0
aa(lp13
I0
aI4
aI0
aI15
aa(lp14
I19
aI0
aI0
aI0
aa(lp15
I4
aI0
aI15
aI0
aa(lp16
I0
aI4
aI0
aI15
aa(lp17
I0
aI0
aI0
aI0
aa(lp18
I0
aI0
aI19
aI0
aa(lp19
I0
aI0
aI19
aI0
aa(lp20
I0
aI4
aI0
aI15
aa(lp21
I0
aI0
aI0
aI4
aa(lp22
I19
aI0
aI0
aI0
aa(lp23
I4
aI0
aI11
aI4
aa(lp24
I11
aI0
aI8
aI0
aa(lp25
I19
aI0
aI0
aI0
aa(lp26
I0
aI0
aI0
aI19
aa(lp27
I0
aI4
aI4
aI11
aa(lp28
I0
aI15
aI4
aI0
aa(lp29
I0
aI4
aI0
aI15
aa(lp30
I4
aI15
aI0
aI0
aa(lp31
I0
aI4
aI15
aI0
aa(lp32
I0
aI19
aI0
aI0
aa(lp33
I0
aI19
aI0
aI0
aa(lp34
I0
aI0
aI0
aI19
aa(lp35
I0
aI4
aI11
aI4
aa(lp36
I0
aI19
aI0
aI0
aa(lp37
I0
aI19
aI0
aI0
aa(lp38
I19
aI0
aI0
aI0
aa(lp39
I8
aI11
aI0
aI0
aa(lp40
I0
aI0
aI19
aI0
aa(lp41
I0
aI15
aI4
aI0
aa(lp42
I0
aI0
aI15
aI4
aa(lp43
I4
aI0
aI15
aI0
aa(lp44
I0
aI0
aI15
aI4
aa(lp45
I11
aI0
aI0
aI8
aa(lp46
I0
aI0
aI19
aI0
aa(lp47
I8
aI0
aI11
aI0
aa(lp48
I0
aI0
aI0
aI0
aa(lp49
I0
aI19
aI0
aI0
aa(lp50
I0
aI19
aI0
aI0
aa(lp51
I0
aI19
aI0
aI0
aa(lp52
I0
aI0
aI19
aI0
aa(lp53
I0
aI0
aI19
aI0
aa(lp54
I0
aI0
aI19
aI0
aa(lp55
I0
aI0
aI0
aI19
aa(lp56
I0
aI0
aI0
aI19
aa(lp57
I0
aI19
aI0
aI0
aa(lp58
I0
aI0
aI19
aI0
aa(lp59
I19
aI0
aI0
aI0
aa(lp60
I0
aI4
aI0
aI15
aa(lp61
I0
aI0
aI0
aI19
aa(lp62
I0
aI19
aI0
aI0
aa(lp63
I0
aI19
aI0
aI0
aa(lp64
I0
aI19
aI0
aI0
aa(lp65
I0
aI0
aI19
aI0
aa(lp66
I0
aI0
aI19
aI0
aa(lp67
I11
aI4
aI4
aI0
aa(lp68
I4
aI15
aI0
aI0
aa(lp69
I4
aI0
aI4
aI11
aa(lp70
I0
aI0
aI15
aI4
aa(lp71
I0
aI15
aI0
aI4
aa(lp72
I0
aI0
aI19
aI0
aa(lp73
I0
aI19
aI0
aI0
aa(lp74
I19
aI0
aI0
aI0
aaS'ACGT'
p75
tp76
.