(dp0
S',0.06,0.0325,0.0225,0.0475,0.04,0.0725,0.0175,0.055,0.0575,0.0775,0.025,0.03,0.0525,0.0575,0.105,0.0625,0.045,0.0925,0.015,0.015,0.0175'
p1
(dp2
I1
(F0.0
F0.0
tp3
sI2
(F0.93919
F0.23897
tp4
sI4
(F1.82296
F0.2761
tp5
sI5
(F2.08926
F0.27716
tp6
ss.