(dp0
S',0.06811,0.03406,0.02477,0.04954,0.03406,0.0805,0.02167,0.04334,0.05882,0.0774,0.02786,0.03096,0.05882,0.04334,0.1115,0.06192,0.05263,0.06811,0.01548,0.01548,0.02167'
p1
(dp2
I1
(F0.0
F0.0
tp3
sI4
(F1.82523
F0.27484
tp4
sI5
(F2.09223
F0.27609
tp5
ss.