((lp0
(lp1
I0
aI0
aI78
aI0
aa(lp2
I26
aI24
aI0
aI28
aa(lp3
I0
aI53
aI0
aI25
aa(lp4
I0
aI63
aI13
aI2
aa(lp5
I0
aI14
aI28
aI36
aa(lp6
I12
aI25
aI0
aI41
aa(lp7
I0
aI0
aI78
aI0
aa(lp8
I0
aI0
aI0
aI78
aa(lp9
I12
aI0
aI66
aI0
aa(lp10
I0
aI0
aI78
aI0
aa(lp11
I0
aI78
aI0
aI0
aa(lp12
I0
aI24
aI26
aI28
aa(lp13
I0
aI60
aI0
aI18
aa(lp14
I78
aI0
aI0
aI0
aa(lp15
I78
aI0
aI0
aI0
aa(lp16
I0
aI0
aI0
aI78
aa(lp17
I0
aI0
aI0
aI0
aa(lp18
I0
aI0
aI78
aI0
aa(lp19
I0
aI0
aI78
aI0
aa(lp20
I78
aI0
aI0
aI0
aa(lp21
I78
aI0
aI0
aI0
aa(lp22
I24
aI0
aI54
aI0
aa(lp23
I28
aI26
aI24
aI0
aa(lp24
I0
aI0
aI78
aI0
aa(lp25
I0
aI78
aI0
aI0
aa(lp26
I41
aI0
aI25
aI12
aa(lp27
I0
aI0
aI0
aI78
aa(lp28
I0
aI54
aI0
aI24
aa(lp29
I13
aI10
aI25
aI30
aa(lp30
I0
aI0
aI78
aI0
aa(lp31
I66
aI12
aI0
aI0
aa(lp32
I0
aI53
aI0
aI25
aa(lp33
I0
aI0
aI0
aI78
aa(lp34
I28
aI25
aI0
aI25
aa(lp35
I0
aI78
aI0
aI0
aa(lp36
I0
aI0
aI54
aI24
aa(lp37
I24
aI0
aI54
aI0
aa(lp38
I78
aI0
aI0
aI0
aa(lp39
I0
aI0
aI12
aI66
aa(lp40
I0
aI78
aI0
aI0
aa(lp41
I30
aI25
aI10
aI13
aa(lp42
I24
aI0
aI54
aI0
aa(lp43
I78
aI0
aI0
aI0
aa(lp44
I28
aI0
aI50
aI0
aa(lp45
I0
aI0
aI78
aI0
aa(lp46
I24
aI0
aI54
aI0
aa(lp47
I0
aI0
aI0
aI78
aa(lp48
I0
aI0
aI78
aI0
aa(lp49
I0
aI78
aI0
aI0
aa(lp50
I41
aI0
aI37
aI0
aa(lp51
I0
aI0
aI78
aI0
aa(lp52
I0
aI0
aI78
aI0
aa(lp53
I0
aI0
aI0
aI78
aa(lp54
I0
aI0
aI0
aI78
aa(lp55
I0
aI78
aI0
aI0
aa(lp56
I0
aI0
aI78
aI0
aa(lp57
I78
aI0
aI0
aI0
aa(lp58
I21
aI13
aI44
aI0
aa(lp59
I0
aI13
aI0
aI65
aa(lp60
I0
aI78
aI0
aI0
aa(lp61
I0
aI78
aI0
aI0
aa(lp62
I0
aI37
aI0
aI41
aa(lp63
I0
aI0
aI78
aI0
aa(lp64
I0
aI25
aI0
aI53
aa(lp65
I0
aI78
aI0
aI0
aa(lp66
I41
aI1
aI25
aI11
aa(lp67
I10
aI28
aI40
aI0
aa(lp68
I0
aI13
aI65
aI0
aa(lp69
I25
aI0
aI53
aI0
aa(lp70
I28
aI0
aI24
aI26
aa(lp71
I0
aI13
aI0
aI65
aa(lp72
I21
aI0
aI56
aI1
aaS'ACGT'
p73
tp74
.