(dp0
S',0.05836,0.02122,0.0252,0.0504,0.03448,0.06499,0.02387,0.0557,0.05172,0.1021,0.03448,0.04111,0.05172,0.0504,0.1034,0.07692,0.05703,0.05968,0.01724,0.01724,0.002653'
p1
(dp2
I1
(F0.0
F0.0
tp3
sI2
(F0.93861
F0.24002
tp4
sI3
(F1.46407
F0.26907
tp5
sI5
(F2.08718
F0.27819
tp6
ss.