(dp0
S',0.06333,0.02,0.03667,0.05333,0.02,0.06,0.02,0.05,0.05333,0.08667,0.03,0.03,0.06,0.03667,0.11,0.05333,0.06667,0.08,0.02,0.02,0.03'
p1
(dp2
I3
(F1.46654
F0.26675
tp3
sI4
(F1.82497
F0.27509
tp4
ss.