((lp0
(lp1
I0
aI0
aI19
aI0
aa(lp2
I0
aI0
aI19
aI0
aa(lp3
I0
aI0
aI19
aI0
aa(lp4
I0
aI11
aI8
aI0
aa(lp5
I8
aI0
aI11
aI0
aa(lp6
I0
aI0
aI0
aI19
aa(lp7
I9
aI0
aI10
aI0
aa(lp8
I0
aI0
aI0
aI19
aa(lp9
I19
aI0
aI0
aI0
aa(lp10
I0
aI0
aI19
aI0
aa(lp11
I0
aI19
aI0
aI0
aa(lp12
I0
aI0
aI0
aI19
aa(lp13
I0
aI19
aI0
aI0
aa(lp14
I19
aI0
aI0
aI0
aa(lp15
I0
aI0
aI19
aI0
aa(lp16
I8
aI0
aI0
aI11
aa(lp17
I0
aI0
aI19
aI0
aa(lp18
I0
aI0
aI19
aI0
aa(lp19
I0
aI0
aI0
aI19
aa(lp20
I0
aI0
aI0
aI0
aa(lp21
I19
aI0
aI0
aI0
aa(lp22
I0
aI0
aI19
aI0
aa(lp23
I19
aI0
aI0
aI0
aa(lp24
I0
aI0
aI19
aI0
aa(lp25
I0
aI19
aI0
aI0
aa(lp26
I0
aI0
aI19
aI0
aa(lp27
I8
aI3
aI0
aI8
aa(lp28
I0
aI19
aI0
aI0
aa(lp29
I0
aI16
aI0
aI3
aa(lp30
I0
aI0
aI19
aI0
aa(lp31
I0
aI8
aI0
aI11
aa(lp32
I0
aI0
aI0
aI19
aa(lp33
I0
aI0
aI0
aI19
aa(lp34
I8
aI8
aI0
aI3
aa(lp35
I0
aI0
aI19
aI0
aa(lp36
I0
aI19
aI0
aI0
aa(lp37
I19
aI0
aI0
aI0
aa(lp38
I0
aI0
aI0
aI19
aa(lp39
I11
aI0
aI8
aI0
aa(lp40
I0
aI19
aI0
aI0
aa(lp41
I3
aI0
aI16
aI0
aa(lp42
I0
aI0
aI19
aI0
aa(lp43
I8
aI0
aI3
aI8
aa(lp44
I19
aI0
aI0
aI0
aa(lp45
I0
aI0
aI19
aI0
aa(lp46
I0
aI0
aI19
aI0
aa(lp47
I1
aI10
aI0
aI8
aa(lp48
I8
aI11
aI0
aI0
aa(lp49
I0
aI0
aI0
aI19
aa(lp50
I11
aI0
aI0
aI8
aa(lp51
I0
aI0
aI19
aI0
aa(lp52
I0
aI0
aI19
aI0
aa(lp53
I0
aI0
aI19
aI0
aa(lp54
I8
aI0
aI0
aI11
aa(lp55
I0
aI0
aI0
aI19
aa(lp56
I0
aI19
aI0
aI0
aa(lp57
I3
aI0
aI16
aI0
aa(lp58
I19
aI0
aI0
aI0
aa(lp59
I0
aI2
aI0
aI17
aa(lp60
I8
aI11
aI0
aI0
aa(lp61
I0
aI19
aI0
aI0
aa(lp62
I0
aI19
aI0
aI0
aa(lp63
I0
aI19
aI0
aI0
aa(lp64
I8
aI0
aI0
aI11
aa(lp65
I19
aI0
aI0
aI0
aa(lp66
I0
aI10
aI0
aI9
aa(lp67
I1
aI0
aI0
aI18
aa(lp68
I0
aI11
aI0
aI8
aa(lp69
I0
aI8
aI11
aI0
aa(lp70
I0
aI0
aI0
aI19
aa(lp71
I0
aI19
aI0
aI0
aa(lp72
I0
aI19
aI0
aI0
aa(lp73
I19
aI0
aI0
aI0
aaS'ACGT'
p74
tp75
.