(dp0
S',0.064,0.012,0.036,0.036,0.024,0.072,0.024,0.04,0.06,0.096,0.024,0.036,0.06,0.048,0.104,0.06,0.08,0.06,0.012,0.024,0.028'
p1
(dp2
I3
(F1.46422
F0.26898
tp3
ssS',0.06116,0.01223,0.03976,0.04281,0.01529,0.0581,0.02446,0.03976,0.06116,0.1131,0.02446,0.0367,0.06422,0.03976,0.09786,0.06422,0.07339,0.06728,0.01223,0.02446,0.02752'
p4
(dp5
I1
(F0.0
F0.0
tp6
sI4
(F1.81848
F0.27962
tp7
sI5
(F2.08354
F0.28076
tp8
ssS',0.08817,0.06729,0.03016,0.03712,0.0232,0.06497,0.02088,0.05336,0.06265,0.07425,0.02552,0.058,0.0464,0.04408,0.06497,0.058,0.0464,0.06497,0.01624,0.02088,0.03248'
p9
(dp10
I1
(F0.0
F0.0
tp11
sI2
(F0.94407
F0.22978
tp12
sI3
(F1.47459
F0.25777
tp13
sI4
(F1.83657
F0.26571
tp14
sI5
(F2.10676
F0.26681
tp15
ssS',0.0625,0.0125,0.04375,0.04375,0.025,0.05625,0.025,0.04375,0.05,0.1,0.025,0.0375,0.0625,0.04375,0.1,0.0625,0.06875,0.0625,0.0125,0.025,0.0375'
p16
(dp17
I1
(F0.0
F0.0
tp18
sI2
(F0.94067
F0.23624
tp19
sI4
(F1.82715
F0.27332
tp20
sI5
(F2.09469
F0.27454
tp21
ssS',0.06325,0.01205,0.03614,0.03614,0.0241,0.07229,0.0256,0.0497,0.0497,0.09639,0.0256,0.03614,0.06024,0.04819,0.09789,0.06777,0.06777,0.06325,0.01205,0.0241,0.03163'
p22
(dp23
I4
(F1.82551
F0.27422
tp24
ssS',0.06333,0.02,0.03667,0.05333,0.02,0.06,0.02,0.05,0.05333,0.08667,0.03,0.03,0.06,0.03667,0.11,0.05333,0.06667,0.08,0.02,0.02,0.03'
p25
(dp26
I3
(F1.46654
F0.26675
tp27
sI4
(F1.82497
F0.27509
tp28
ssS',0.05442,0.01361,0.03401,0.03401,0.02721,0.06122,0.02721,0.04762,0.04762,0.09524,0.02721,0.04082,0.06122,0.05442,0.102,0.06803,0.06803,0.06122,0.01361,0.02721,0.03401'
p29
(dp30
I2
(F0.94105
F0.23551
tp31
sI3
(F1.4688
F0.2643
tp32
sI4
(F1.82824
F0.27257
tp33
sI5
(F2.0961
F0.27382
tp34
ssS',0.05789,0.02105,0.02632,0.05,0.03553,0.06579,0.02368,0.05658,0.05132,0.1013,0.03421,0.04079,0.05132,0.05,0.1026,0.07763,0.05658,0.05921,0.01842,0.01711,0.002632'
p35
(dp36
I1
(F0.0
F0.0
tp37
sI2
(F0.93885
F0.23959
tp38
sI3
(F1.46453
F0.26859
tp39
sI5
(F2.08803
F0.27771
tp40
ssS',0.06,0.0325,0.0225,0.0475,0.04,0.0725,0.0175,0.055,0.0575,0.0775,0.025,0.03,0.0525,0.0575,0.105,0.0625,0.045,0.0925,0.015,0.015,0.0175'
p41
(dp42
I1
(F0.0
F0.0
tp43
sI2
(F0.93919
F0.23897
tp44
sI4
(F1.82296
F0.2761
tp45
sI5
(F2.08926
F0.27716
tp46
ss.