(dp0
S',0.06211,0.01242,0.04037,0.04348,0.01553,0.05901,0.02484,0.04037,0.05901,0.1025,0.02484,0.03727,0.06522,0.04037,0.09938,0.06522,0.07453,0.06832,0.01242,0.02484,0.02795'
p1
(dp2
I1
(F0.0
F0.0
tp3
sI4
(F1.82155
F0.27712
tp4
sI5
(F2.08744
F0.27817
tp5
ss.