(dp0
S',0.06426,0.01205,0.03614,0.03614,0.0241,0.07229,0.0241,0.04016,0.06024,0.09237,0.0241,0.03614,0.06024,0.04819,0.1044,0.06024,0.08032,0.06024,0.01205,0.0241,0.02811'
p1
(dp2
I3
(F1.46472
F0.26844
tp3
ss.