(dp0
S',0.06426,0.01205,0.03614,0.03614,0.0241,0.07229,0.0241,0.04016,0.06024,0.09237,0.0241,0.03614,0.06024,0.04819,0.1044,0.06024,0.08032,0.06024,0.01205,0.0241,0.02811'
p1
(dp2
I3
(F1.46472
F0.26844
tp3
ssS',0.08817,0.06729,0.03016,0.03712,0.0232,0.06497,0.02088,0.05336,0.06265,0.07425,0.02552,0.058,0.0464,0.04408,0.06497,0.058,0.0464,0.06497,0.01624,0.02088,0.03248'
p4
(dp5
I1
(F0.0
F0.0
tp6
sI2
(F0.94407
F0.22978
tp7
sI3
(F1.47459
F0.25777
tp8
sI4
(F1.83657
F0.26571
tp9
sI5
(F2.10676
F0.26681
tp10
ss.